; Function Attrs: nounwind uwtable
define dso_local { i64, ptr } @jq_util_input_get_current_filename(ptr noundef %0) local_unnamed_addr #0 {
  %2 = alloca ptr, align 8
  %3 = alloca ptr, align 8
  call void @llvm.lifetime.start.p0(i64 8, ptr nonnull %2) #13
  store ptr null, ptr %2, align 8, !tbaa !31
  call void @llvm.lifetime.start.p0(i64 8, ptr nonnull %3) #13
  store ptr null, ptr %3, align 8, !tbaa !31
  call void @jq_get_input_cb(ptr noundef %0, ptr noundef nonnull %2, ptr noundef nonnull %3) #13
  %4 = load ptr, ptr %2, align 8, !tbaa !31
  %.not = icmp eq ptr %4, @jq_util_input_next_input_cb
  br i1 %.not, label %10, label %5

5:                                                ; preds = %1
  %6 = call { i64, ptr } @jv_string(ptr noundef nonnull @.str.8) #13
  %7 = extractvalue { i64, ptr } %6, 0
  %8 = extractvalue { i64, ptr } %6, 1
  %9 = call { i64, ptr } @jv_invalid_with_msg(i64 %7, ptr %8) #13
  br label %17

10:                                               ; preds = %1
  %11 = load ptr, ptr %3, align 8, !tbaa !31
  %12 = getelementptr inbounds nuw i8, ptr %11, i64 4176
  %13 = load i64, ptr %12, align 8
  %14 = getelementptr inbounds nuw i8, ptr %11, i64 4184
  %15 = load ptr, ptr %14, align 8
  %16 = call { i64, ptr } @jv_copy(i64 %13, ptr %15) #13
  br label %17

17:                                               ; preds = %10, %5
  %.pn = phi { i64, ptr } [ %9, %5 ], [ %16, %10 ]
  call void @llvm.lifetime.end.p0(i64 8, ptr nonnull %3) #13
  call void @llvm.lifetime.end.p0(i64 8, ptr nonnull %2) #13
  ret { i64, ptr } %.pn
}